; Function Attrs: nounwind uwtable
define i32 @ssl_do_client_cert_cb(ptr noundef %0, ptr noundef %1, ptr noundef %2) local_unnamed_addr #0 {
  %4 = getelementptr inbounds nuw i8, ptr %0, i64 8
  %5 = load ptr, ptr %4, align 8, !tbaa !121
  %6 = getelementptr inbounds nuw i8, ptr %5, i64 520
  %7 = load ptr, ptr %6, align 8, !tbaa !222
  %.not = icmp eq ptr %7, null
  br i1 %.not, label %10, label %8

8:                                                ; preds = %3
  %9 = tail call i32 @tls_engine_load_ssl_client_cert(ptr noundef nonnull %0, ptr noundef %1, ptr noundef %2) #8
  %.not17 = icmp eq i32 %9, 0
  br i1 %.not17, label %10, label %17

10:                                               ; preds = %8, %3
  %11 = getelementptr inbounds nuw i8, ptr %5, i64 200
  %12 = load ptr, ptr %11, align 8, !tbaa !223
  %.not18 = icmp eq ptr %12, null
  br i1 %.not18, label %17, label %13

13:                                               ; preds = %10
  %14 = getelementptr inbounds nuw i8, ptr %0, i64 64
  %15 = load ptr, ptr %14, align 8, !tbaa !163
  %16 = tail call i32 %12(ptr noundef %15, ptr noundef %1, ptr noundef %2) #8
  br label %17

17:                                               ; preds = %10, %13, %8
  %.0 = phi i32 [ %9, %8 ], [ %16, %13 ], [ 0, %10 ]
  ret i32 %.0
}